target datalayout = "e-m:e-p270:32:32-p271:32:32-p272:64:64-i64:64-i128:128-f80:128-n8:16:32:64-S128"
target triple = "x86_64-unknown-linux-gnu"

%"class.std::__cxx11::basic_string" = type { %"struct.std::__cxx11::basic_string<char>::_Alloc_hider", i64, %union.anon }
%"struct.std::__cxx11::basic_string<char>::_Alloc_hider" = type { ptr }
%union.anon = type { i64, [8 x i8] }
%"class.arrow::Status" = type { ptr }
%"class.arrow::io::HadoopFileSystem" = type { %"class.arrow::io::FileSystem", %"class.std::unique_ptr.25" }
%"class.arrow::io::FileSystem" = type { ptr }
%"class.std::unique_ptr.25" = type { %"struct.std::__uniq_ptr_data.26" }
%"struct.std::__uniq_ptr_data.26" = type { %"class.std::__uniq_ptr_impl.27" }
%"class.std::__uniq_ptr_impl.27" = type { %"class.std::tuple.28" }
%"class.std::tuple.28" = type { %"struct.std::_Tuple_impl.29" }
%"struct.std::_Tuple_impl.29" = type { %"struct.std::_Head_base.32" }
%"struct.std::_Head_base.32" = type { ptr }
%"class.arrow::io::HadoopFileSystem::HadoopFileSystemImpl" = type { ptr, %"class.std::__cxx11::basic_string", %"class.std::__cxx11::basic_string", i32, %"class.std::__cxx11::basic_string", ptr }

@.str.8 = private unnamed_addr constant [26 x i8] c"Calling GetPathInfo for '\00", align 1
@.str.9 = private unnamed_addr constant [9 x i8] c"' failed\00", align 1

; Function Attrs: mustprogress nounwind uwtable
define linkonce_odr hidden noundef nonnull align 8 dereferenceable(8) ptr @_ZNSt10_Head_baseILm0EPN5arrow2io16HadoopFileSystem20HadoopFileSystemImplELb0EE7_M_headERKS5_(ptr noundef nonnull align 8 dereferenceable(8) %__b) #2 comdat align 2 {
entry:
  %__b.addr = alloca ptr, align 8
  store ptr %__b, ptr %__b.addr, align 8
  %0 = load ptr, ptr %__b.addr, align 8
  %_M_head_impl = getelementptr inbounds %"struct.std::_Head_base.32", ptr %0, i32 0, i32 0
  ret ptr %_M_head_impl
}

; Function Attrs: mustprogress nounwind uwtable
define linkonce_odr hidden noundef nonnull align 8 dereferenceable(8) ptr @_ZNSt11_Tuple_implILm0EJPN5arrow2io16HadoopFileSystem20HadoopFileSystemImplESt14default_deleteIS3_EEE7_M_headERKS7_(ptr noundef nonnull align 8 dereferenceable(8) %__t) #2 comdat align 2 {
entry:
  %__t.addr = alloca ptr, align 8
  store ptr %__t, ptr %__t.addr, align 8
  %0 = load ptr, ptr %__t.addr, align 8
  %call = call noundef nonnull align 8 dereferenceable(8) ptr @_ZNSt10_Head_baseILm0EPN5arrow2io16HadoopFileSystem20HadoopFileSystemImplELb0EE7_M_headERKS5_(ptr noundef nonnull align 8 dereferenceable(8) %0) #14
  ret ptr %call
}

; Function Attrs: mustprogress nounwind uwtable
define linkonce_odr hidden noundef nonnull align 8 dereferenceable(8) ptr @_ZSt12__get_helperILm0EPN5arrow2io16HadoopFileSystem20HadoopFileSystemImplEJSt14default_deleteIS3_EEERKT0_RKSt11_Tuple_implIXT_EJS7_DpT1_EE(ptr noundef nonnull align 8 dereferenceable(8) %__t) #2 comdat {
entry:
  %__t.addr = alloca ptr, align 8
  store ptr %__t, ptr %__t.addr, align 8
  %0 = load ptr, ptr %__t.addr, align 8
  %call = call noundef nonnull align 8 dereferenceable(8) ptr @_ZNSt11_Tuple_implILm0EJPN5arrow2io16HadoopFileSystem20HadoopFileSystemImplESt14default_deleteIS3_EEE7_M_headERKS7_(ptr noundef nonnull align 8 dereferenceable(8) %0) #14
  ret ptr %call
}

; Function Attrs: mustprogress nounwind uwtable
define linkonce_odr hidden noundef nonnull align 8 dereferenceable(8) ptr @_ZSt3getILm0EJPN5arrow2io16HadoopFileSystem20HadoopFileSystemImplESt14default_deleteIS3_EEERKNSt13tuple_elementIXT_ESt5tupleIJDpT0_EEE4typeERKSB_(ptr noundef nonnull align 8 dereferenceable(8) %__t) #2 comdat {
entry:
  %__t.addr = alloca ptr, align 8
  store ptr %__t, ptr %__t.addr, align 8
  %0 = load ptr, ptr %__t.addr, align 8
  %call = call noundef nonnull align 8 dereferenceable(8) ptr @_ZSt12__get_helperILm0EPN5arrow2io16HadoopFileSystem20HadoopFileSystemImplEJSt14default_deleteIS3_EEERKT0_RKSt11_Tuple_implIXT_EJS7_DpT1_EE(ptr noundef nonnull align 8 dereferenceable(8) %0) #14
  ret ptr %call
}

; Function Attrs: mustprogress nounwind uwtable
define linkonce_odr void @_ZN5arrow6StatusC2Ev(ptr noundef nonnull align 8 dereferenceable(8) %this) unnamed_addr #2 comdat align 2 {
entry:
  %this.addr = alloca ptr, align 8
  store ptr %this, ptr %this.addr, align 8
  %this1 = load ptr, ptr %this.addr, align 8
  %state_ = getelementptr inbounds %"class.arrow::Status", ptr %this1, i32 0, i32 0
  store ptr null, ptr %state_, align 8
  ret void
}

; Function Attrs: mustprogress uwtable
define linkonce_odr void @_ZN5arrow8internal16IOErrorFromErrnoIJRA26_KcRKNSt7__cxx1112basic_stringIcSt11char_traitsIcESaIcEEERA9_S2_EEENS_6StatusEiDpOT_(ptr noalias sret(%"class.arrow::Status") align 8 %agg.result, i32 noundef %errnum, ptr noundef nonnull align 1 dereferenceable(26) %args, ptr noundef nonnull align 8 dereferenceable(32) %args1, ptr noundef nonnull align 1 dereferenceable(9) %args3) #0 comdat {
entry:
  %result.ptr = alloca ptr, align 8
  %errnum.addr = alloca i32, align 4
  %args.addr = alloca ptr, align 8
  %args.addr2 = alloca ptr, align 8
  %args.addr4 = alloca ptr, align 8
  store ptr %agg.result, ptr %result.ptr, align 8
  store i32 %errnum, ptr %errnum.addr, align 4
  store ptr %args, ptr %args.addr, align 8
  store ptr %args1, ptr %args.addr2, align 8
  store ptr %args3, ptr %args.addr4, align 8
  %0 = load i32, ptr %errnum.addr, align 4
  %1 = load ptr, ptr %args.addr, align 8
  %2 = load ptr, ptr %args.addr2, align 8
  %3 = load ptr, ptr %args.addr4, align 8
  call void @_ZN5arrow8internal15StatusFromErrnoIJRA26_KcRKNSt7__cxx1112basic_stringIcSt11char_traitsIcESaIcEEERA9_S2_EEENS_6StatusEiNS_10StatusCodeEDpOT_(ptr sret(%"class.arrow::Status") align 8 %agg.result, i32 noundef %0, i8 noundef signext 5, ptr noundef nonnull align 1 dereferenceable(26) %1, ptr noundef nonnull align 8 dereferenceable(32) %2, ptr noundef nonnull align 1 dereferenceable(9) %3)
  ret void
}

; Function Attrs: mustprogress nounwind uwtable
define linkonce_odr hidden noundef ptr @_ZNKSt15__uniq_ptr_implIN5arrow2io16HadoopFileSystem20HadoopFileSystemImplESt14default_deleteIS3_EE6_M_ptrEv(ptr noundef nonnull align 8 dereferenceable(8) %this) #2 comdat align 2 {
entry:
  %this.addr = alloca ptr, align 8
  store ptr %this, ptr %this.addr, align 8
  %this1 = load ptr, ptr %this.addr, align 8
  %_M_t = getelementptr inbounds %"class.std::__uniq_ptr_impl.27", ptr %this1, i32 0, i32 0
  %call = call noundef nonnull align 8 dereferenceable(8) ptr @_ZSt3getILm0EJPN5arrow2io16HadoopFileSystem20HadoopFileSystemImplESt14default_deleteIS3_EEERKNSt13tuple_elementIXT_ESt5tupleIJDpT0_EEE4typeERKSB_(ptr noundef nonnull align 8 dereferenceable(8) %_M_t) #14
  %0 = load ptr, ptr %call, align 8
  ret ptr %0
}

; Function Attrs: mustprogress nounwind uwtable
define linkonce_odr void @_ZN5arrow6Status2OKEv(ptr noalias sret(%"class.arrow::Status") align 8 %agg.result) #2 comdat align 2 {
entry:
  %result.ptr = alloca ptr, align 8
  store ptr %agg.result, ptr %result.ptr, align 8
  call void @_ZN5arrow6StatusC2Ev(ptr noundef nonnull align 8 dereferenceable(8) %agg.result) #14
  ret void
}

; Function Attrs: mustprogress uwtable
define internal void @_ZN5arrow2io12_GLOBAL__N_117GetPathInfoFailedERKNSt7__cxx1112basic_stringIcSt11char_traitsIcESaIcEEE(ptr noalias sret(%"class.arrow::Status") align 8 %agg.result, ptr noundef nonnull align 8 dereferenceable(32) %path) #0 {
entry:
  %result.ptr = alloca ptr, align 8
  %path.addr = alloca ptr, align 8
  store ptr %agg.result, ptr %result.ptr, align 8
  store ptr %path, ptr %path.addr, align 8
  %call = call ptr @__errno_location() #18
  %0 = load i32, ptr %call, align 4
  %1 = load ptr, ptr %path.addr, align 8
  call void @_ZN5arrow8internal16IOErrorFromErrnoIJRA26_KcRKNSt7__cxx1112basic_stringIcSt11char_traitsIcESaIcEEERA9_S2_EEENS_6StatusEiDpOT_(ptr sret(%"class.arrow::Status") align 8 %agg.result, i32 noundef %0, ptr noundef nonnull align 1 dereferenceable(26) @.str.8, ptr noundef nonnull align 8 dereferenceable(32) %1, ptr noundef nonnull align 1 dereferenceable(9) @.str.9)
  ret void
}

; Function Attrs: mustprogress nounwind uwtable
define linkonce_odr hidden noundef ptr @_ZNKSt10unique_ptrIN5arrow2io16HadoopFileSystem20HadoopFileSystemImplESt14default_deleteIS3_EE3getEv(ptr noundef nonnull align 8 dereferenceable(8) %this) #2 comdat align 2 {
entry:
  %this.addr = alloca ptr, align 8
  store ptr %this, ptr %this.addr, align 8
  %this1 = load ptr, ptr %this.addr, align 8
  %_M_t = getelementptr inbounds %"class.std::unique_ptr.25", ptr %this1, i32 0, i32 0
  %call = call noundef ptr @_ZNKSt15__uniq_ptr_implIN5arrow2io16HadoopFileSystem20HadoopFileSystemImplESt14default_deleteIS3_EE6_M_ptrEv(ptr noundef nonnull align 8 dereferenceable(8) %_M_t) #14
  ret ptr %call
}

; Function Attrs: mustprogress uwtable
define linkonce_odr hidden void @_ZN5arrow2io16HadoopFileSystem20HadoopFileSystemImpl11GetPathInfoERKNSt7__cxx1112basic_stringIcSt11char_traitsIcESaIcEEEPNS0_12HdfsPathInfoE(ptr noalias sret(%"class.arrow::Status") align 8 %agg.result, ptr noundef nonnull align 8 dereferenceable(120) %this, ptr noundef nonnull align 8 dereferenceable(32) %path, ptr noundef %info) #0 comdat align 2 {
entry:
  %result.ptr = alloca ptr, align 8
  %this.addr = alloca ptr, align 8
  %path.addr = alloca ptr, align 8
  %info.addr = alloca ptr, align 8
  %entry2 = alloca ptr, align 8
  store ptr %agg.result, ptr %result.ptr, align 8
  store ptr %this, ptr %this.addr, align 8
  store ptr %path, ptr %path.addr, align 8
  store ptr %info, ptr %info.addr, align 8
  %this1 = load ptr, ptr %this.addr, align 8
  %driver_ = getelementptr inbounds %"class.arrow::io::HadoopFileSystem::HadoopFileSystemImpl", ptr %this1, i32 0, i32 0
  %0 = load ptr, ptr %driver_, align 8
  %fs_ = getelementptr inbounds %"class.arrow::io::HadoopFileSystem::HadoopFileSystemImpl", ptr %this1, i32 0, i32 5
  %1 = load ptr, ptr %fs_, align 8
  %2 = load ptr, ptr %path.addr, align 8
  %call = call noundef ptr @_ZNKSt7__cxx1112basic_stringIcSt11char_traitsIcESaIcEE5c_strEv(ptr noundef nonnull align 8 dereferenceable(32) %2) #14
  %call3 = call noundef ptr @_ZN5arrow2io8internal11LibHdfsShim11GetPathInfoEP13hdfs_internalPKc(ptr noundef nonnull align 8 dereferenceable(312) %0, ptr noundef %1, ptr noundef %call)
  store ptr %call3, ptr %entry2, align 8
  %3 = load ptr, ptr %entry2, align 8
  %cmp = icmp eq ptr %3, null
  br i1 %cmp, label %if.then, label %if.end

if.then:                                          ; preds = %entry
  %4 = load ptr, ptr %path.addr, align 8
  call void @_ZN5arrow2io12_GLOBAL__N_117GetPathInfoFailedERKNSt7__cxx1112basic_stringIcSt11char_traitsIcESaIcEEE(ptr sret(%"class.arrow::Status") align 8 %agg.result, ptr noundef nonnull align 8 dereferenceable(32) %4)
  br label %return

if.end:                                           ; preds = %entry
  %5 = load ptr, ptr %entry2, align 8
  %6 = load ptr, ptr %info.addr, align 8
  call void @_ZN5arrow2ioL11SetPathInfoEPK12hdfsFileInfoPNS0_12HdfsPathInfoE(ptr noundef %5, ptr noundef %6)
  %driver_4 = getelementptr inbounds %"class.arrow::io::HadoopFileSystem::HadoopFileSystemImpl", ptr %this1, i32 0, i32 0
  %7 = load ptr, ptr %driver_4, align 8
  %8 = load ptr, ptr %entry2, align 8
  call void @_ZN5arrow2io8internal11LibHdfsShim12FreeFileInfoEP12hdfsFileInfoi(ptr noundef nonnull align 8 dereferenceable(312) %7, ptr noundef %8, i32 noundef 1)
  call void @_ZN5arrow6Status2OKEv(ptr sret(%"class.arrow::Status") align 8 %agg.result)
  br label %return

return:                                           ; preds = %if.end, %if.then
  ret void
}

; Function Attrs: mustprogress nounwind uwtable
define linkonce_odr hidden noundef ptr @_ZNKSt10unique_ptrIN5arrow2io16HadoopFileSystem20HadoopFileSystemImplESt14default_deleteIS3_EEptEv(ptr noundef nonnull align 8 dereferenceable(8) %this) #2 comdat align 2 {
entry:
  %this.addr = alloca ptr, align 8
  store ptr %this, ptr %this.addr, align 8
  %this1 = load ptr, ptr %this.addr, align 8
  %call = call noundef ptr @_ZNKSt10unique_ptrIN5arrow2io16HadoopFileSystem20HadoopFileSystemImplESt14default_deleteIS3_EE3getEv(ptr noundef nonnull align 8 dereferenceable(8) %this1) #14
  ret ptr %call
}

; Function Attrs: mustprogress uwtable
define void @_ZN5arrow2io16HadoopFileSystem11GetPathInfoERKNSt7__cxx1112basic_stringIcSt11char_traitsIcESaIcEEEPNS0_12HdfsPathInfoE(ptr noalias sret(%"class.arrow::Status") align 8 %agg.result, ptr noundef nonnull align 8 dereferenceable(16) %this, ptr noundef nonnull align 8 dereferenceable(32) %path, ptr noundef %info) #0 align 2 {
entry:
  %result.ptr = alloca ptr, align 8
  %this.addr = alloca ptr, align 8
  %path.addr = alloca ptr, align 8
  %info.addr = alloca ptr, align 8
  store ptr %agg.result, ptr %result.ptr, align 8
  store ptr %this, ptr %this.addr, align 8
  store ptr %path, ptr %path.addr, align 8
  store ptr %info, ptr %info.addr, align 8
  %this1 = load ptr, ptr %this.addr, align 8
  %impl_ = getelementptr inbounds %"class.arrow::io::HadoopFileSystem", ptr %this1, i32 0, i32 1
  %call = call noundef ptr @_ZNKSt10unique_ptrIN5arrow2io16HadoopFileSystem20HadoopFileSystemImplESt14default_deleteIS3_EEptEv(ptr noundef nonnull align 8 dereferenceable(8) %impl_) #14
  %0 = load ptr, ptr %path.addr, align 8
  %1 = load ptr, ptr %info.addr, align 8
  call void @_ZN5arrow2io16HadoopFileSystem20HadoopFileSystemImpl11GetPathInfoERKNSt7__cxx1112basic_stringIcSt11char_traitsIcESaIcEEEPNS0_12HdfsPathInfoE(ptr sret(%"class.arrow::Status") align 8 %agg.result, ptr noundef nonnull align 8 dereferenceable(120) %call, ptr noundef nonnull align 8 dereferenceable(32) %0, ptr noundef %1)
  ret void
}