; Function Attrs: mustprogress uwtable
define void @_ZN5arrow2io16HadoopFileSystem11GetPathInfoERKNSt7__cxx1112basic_stringIcSt11char_traitsIcESaIcEEEPNS0_12HdfsPathInfoE(ptr noalias sret(%"class.arrow::Status") align 8 %agg.result, ptr nocapture noundef nonnull readonly align 8 dereferenceable(16) %this, ptr noundef nonnull align 8 dereferenceable(32) %path, ptr noundef %info) local_unnamed_addr #0 align 2 {
entry:
  %impl_ = getelementptr inbounds i8, ptr %this, i64 8
  %0 = load ptr, ptr %impl_, align 8
  tail call void @llvm.experimental.noalias.scope.decl(metadata !257)
  %1 = load ptr, ptr %0, align 8, !noalias !257
  %fs_.i = getelementptr inbounds i8, ptr %0, i64 112
  %2 = load ptr, ptr %fs_.i, align 8, !noalias !257
  %call.i = tail call noundef ptr @_ZNKSt7__cxx1112basic_stringIcSt11char_traitsIcESaIcEE5c_strEv(ptr noundef nonnull align 8 dereferenceable(32) %path) #21, !noalias !257
  %call3.i = tail call noundef ptr @_ZN5arrow2io8internal11LibHdfsShim11GetPathInfoEP13hdfs_internalPKc(ptr noundef nonnull align 8 dereferenceable(312) %1, ptr noundef %2, ptr noundef %call.i), !noalias !257
  %cmp.i = icmp eq ptr %call3.i, null
  br i1 %cmp.i, label %if.then.i, label %if.end.i

if.then.i:                                        ; preds = %entry
  %call.i.i = tail call ptr @__errno_location() #23
  %3 = load i32, ptr %call.i.i, align 4, !noalias !260
  tail call void @_ZN5arrow8internal15StatusFromErrnoIJRA26_KcRKNSt7__cxx1112basic_stringIcSt11char_traitsIcESaIcEEERA9_S2_EEENS_6StatusEiNS_10StatusCodeEDpOT_(ptr sret(%"class.arrow::Status") align 8 %agg.result, i32 noundef %3, i8 noundef signext 5, ptr noundef nonnull align 1 dereferenceable(26) @.str.8, ptr noundef nonnull align 8 dereferenceable(32) %path, ptr noundef nonnull align 1 dereferenceable(9) @.str.9)
  br label %_ZN5arrow2io16HadoopFileSystem20HadoopFileSystemImpl11GetPathInfoERKNSt7__cxx1112basic_stringIcSt11char_traitsIcESaIcEEEPNS0_12HdfsPathInfoE.exit

if.end.i:                                         ; preds = %entry
  tail call fastcc void @_ZN5arrow2ioL11SetPathInfoEPK12hdfsFileInfoPNS0_12HdfsPathInfoE(ptr noundef nonnull %call3.i, ptr noundef %info), !noalias !257
  %4 = load ptr, ptr %0, align 8, !noalias !257
  tail call void @_ZN5arrow2io8internal11LibHdfsShim12FreeFileInfoEP12hdfsFileInfoi(ptr noundef nonnull align 8 dereferenceable(312) %4, ptr noundef nonnull %call3.i, i32 noundef 1), !noalias !257
  store ptr null, ptr %agg.result, align 8, !alias.scope !263
  br label %_ZN5arrow2io16HadoopFileSystem20HadoopFileSystemImpl11GetPathInfoERKNSt7__cxx1112basic_stringIcSt11char_traitsIcESaIcEEEPNS0_12HdfsPathInfoE.exit

_ZN5arrow2io16HadoopFileSystem20HadoopFileSystemImpl11GetPathInfoERKNSt7__cxx1112basic_stringIcSt11char_traitsIcESaIcEEEPNS0_12HdfsPathInfoE.exit: ; preds = %if.then.i, %if.end.i
  ret void
}